target datalayout = "e-m:e-p270:32:32-p271:32:32-p272:64:64-i64:64-i128:128-f80:128-n8:16:32:64-S128"
target triple = "x86_64-pc-linux-gnu"

%"class.std::__cxx11::basic_string" = type { %"struct.std::__cxx11::basic_string<char>::_Alloc_hider", i64, %union.anon }
%"struct.std::__cxx11::basic_string<char>::_Alloc_hider" = type { ptr }
%union.anon = type { i64, [8 x i8] }
%"class.testing::internal::MutexBase" = type { %union.pthread_mutex_t, i8, i64 }
%union.pthread_mutex_t = type { %struct.__pthread_mutex_s }
%struct.__pthread_mutex_s = type { i32, i32, i32, i32, i32, i16, i16, %struct.__pthread_internal_list }
%struct.__pthread_internal_list = type { ptr, ptr }
%"class.testing::UnitTest" = type { ptr, %"class.testing::internal::Mutex", ptr }
%"class.testing::internal::Mutex" = type { %"class.testing::internal::MutexBase" }
%"class.testing::internal::Random" = type { i32 }
%"class.testing::internal::FilePath" = type { %"class.std::__cxx11::basic_string" }
%"class.testing::internal::UnitTestImpl" = type <{ ptr, ptr, %"class.testing::internal::FilePath", %"class.testing::internal::DefaultGlobalTestPartResultReporter", %"class.testing::internal::DefaultPerThreadTestPartResultReporter", ptr, %"class.testing::internal::Mutex", %"class.testing::internal::ThreadLocal", %"class.std::vector", %"class.std::vector.4", %"class.std::vector.9", %"class.testing::internal::ParameterizedTestCaseRegistry", i8, [3 x i8], i32, ptr, ptr, %"class.testing::TestResult", %"class.testing::TestEventListeners", ptr, i8, [3 x i8], i32, %"class.testing::internal::Random", [4 x i8], i64, i64, %"class.testing::internal::scoped_ptr.29", %"class.testing::internal::scoped_ptr.30", %"class.testing::internal::ThreadLocal.31", i8, [7 x i8] }>
%"class.testing::internal::DefaultGlobalTestPartResultReporter" = type { %"class.testing::TestPartResultReporterInterface", ptr }
%"class.testing::TestPartResultReporterInterface" = type { ptr }
%"class.testing::internal::DefaultPerThreadTestPartResultReporter" = type { %"class.testing::TestPartResultReporterInterface", ptr }
%"class.testing::internal::ThreadLocal" = type { i32, %"class.testing::internal::scoped_ptr.0" }
%"class.testing::internal::scoped_ptr.0" = type { ptr }
%"class.std::vector" = type { %"struct.std::_Vector_base" }
%"struct.std::_Vector_base" = type { %"struct.std::_Vector_base<testing::Environment *, std::allocator<testing::Environment *>>::_Vector_impl" }
%"struct.std::_Vector_base<testing::Environment *, std::allocator<testing::Environment *>>::_Vector_impl" = type { %"struct.std::_Vector_base<testing::Environment *, std::allocator<testing::Environment *>>::_Vector_impl_data" }
%"struct.std::_Vector_base<testing::Environment *, std::allocator<testing::Environment *>>::_Vector_impl_data" = type { ptr, ptr, ptr }
%"class.std::vector.4" = type { %"struct.std::_Vector_base.5" }
%"struct.std::_Vector_base.5" = type { %"struct.std::_Vector_base<testing::TestCase *, std::allocator<testing::TestCase *>>::_Vector_impl" }
%"struct.std::_Vector_base<testing::TestCase *, std::allocator<testing::TestCase *>>::_Vector_impl" = type { %"struct.std::_Vector_base<testing::TestCase *, std::allocator<testing::TestCase *>>::_Vector_impl_data" }
%"struct.std::_Vector_base<testing::TestCase *, std::allocator<testing::TestCase *>>::_Vector_impl_data" = type { ptr, ptr, ptr }
%"class.std::vector.9" = type { %"struct.std::_Vector_base.10" }
%"struct.std::_Vector_base.10" = type { %"struct.std::_Vector_base<int, std::allocator<int>>::_Vector_impl" }
%"struct.std::_Vector_base<int, std::allocator<int>>::_Vector_impl" = type { %"struct.std::_Vector_base<int, std::allocator<int>>::_Vector_impl_data" }
%"struct.std::_Vector_base<int, std::allocator<int>>::_Vector_impl_data" = type { ptr, ptr, ptr }
%"class.testing::internal::ParameterizedTestCaseRegistry" = type { %"class.std::vector.14" }
%"class.std::vector.14" = type { %"struct.std::_Vector_base.15" }
%"struct.std::_Vector_base.15" = type { %"struct.std::_Vector_base<testing::internal::ParameterizedTestCaseInfoBase *, std::allocator<testing::internal::ParameterizedTestCaseInfoBase *>>::_Vector_impl" }
%"struct.std::_Vector_base<testing::internal::ParameterizedTestCaseInfoBase *, std::allocator<testing::internal::ParameterizedTestCaseInfoBase *>>::_Vector_impl" = type { %"struct.std::_Vector_base<testing::internal::ParameterizedTestCaseInfoBase *, std::allocator<testing::internal::ParameterizedTestCaseInfoBase *>>::_Vector_impl_data" }
%"struct.std::_Vector_base<testing::internal::ParameterizedTestCaseInfoBase *, std::allocator<testing::internal::ParameterizedTestCaseInfoBase *>>::_Vector_impl_data" = type { ptr, ptr, ptr }
%"class.testing::TestResult" = type { %"class.testing::internal::Mutex", %"class.std::vector.19", %"class.std::vector.24", i32, i64 }
%"class.std::vector.19" = type { %"struct.std::_Vector_base.20" }
%"struct.std::_Vector_base.20" = type { %"struct.std::_Vector_base<testing::TestPartResult, std::allocator<testing::TestPartResult>>::_Vector_impl" }
%"struct.std::_Vector_base<testing::TestPartResult, std::allocator<testing::TestPartResult>>::_Vector_impl" = type { %"struct.std::_Vector_base<testing::TestPartResult, std::allocator<testing::TestPartResult>>::_Vector_impl_data" }
%"struct.std::_Vector_base<testing::TestPartResult, std::allocator<testing::TestPartResult>>::_Vector_impl_data" = type { ptr, ptr, ptr }
%"class.std::vector.24" = type { %"struct.std::_Vector_base.25" }
%"struct.std::_Vector_base.25" = type { %"struct.std::_Vector_base<testing::TestProperty, std::allocator<testing::TestProperty>>::_Vector_impl" }
%"struct.std::_Vector_base<testing::TestProperty, std::allocator<testing::TestProperty>>::_Vector_impl" = type { %"struct.std::_Vector_base<testing::TestProperty, std::allocator<testing::TestProperty>>::_Vector_impl_data" }
%"struct.std::_Vector_base<testing::TestProperty, std::allocator<testing::TestProperty>>::_Vector_impl_data" = type { ptr, ptr, ptr }
%"class.testing::TestEventListeners" = type { ptr, ptr, ptr }
%"class.testing::internal::scoped_ptr.29" = type { ptr }
%"class.testing::internal::scoped_ptr.30" = type { ptr }
%"class.testing::internal::ThreadLocal.31" = type { i32, %"class.testing::internal::scoped_ptr.32" }
%"class.testing::internal::scoped_ptr.32" = type { ptr }
%"class.testing::internal::InternalRunDeathTestFlag" = type <{ %"class.std::__cxx11::basic_string", i32, i32, i32, [4 x i8] }>

@__dso_handle = external hidden global i8
@.str.183 = private unnamed_addr constant [3 x i8] c"%s\00", align 1
@_ZZN7testing8UnitTest11GetInstanceEvE8instance = internal global %"class.testing::UnitTest" zeroinitializer, align 8
@_ZGVZN7testing8UnitTest11GetInstanceEvE8instance = internal global i64 0, align 8
@.str.279 = private unnamed_addr constant [2 x i8] c"w\00", align 1
@stderr = external global ptr, align 8
@_ZN7testing8UnitTestC1Ev = unnamed_addr alias void (ptr), ptr @_ZN7testing8UnitTestC2Ev
@_ZN7testing8UnitTestD1Ev = unnamed_addr alias void (ptr), ptr @_ZN7testing8UnitTestD2Ev

; Function Attrs: mustprogress nounwind uwtable
define available_externally noundef ptr @_ZNKSt7__cxx1112basic_stringIcSt11char_traitsIcESaIcEE7_M_dataEv(ptr noundef nonnull align 8 dereferenceable(32) %0) #7 align 2 {
  %2 = alloca ptr, align 8
  store ptr %0, ptr %2, align 8, !tbaa !21
  %3 = load ptr, ptr %2, align 8
  %4 = getelementptr inbounds nuw %"class.std::__cxx11::basic_string", ptr %3, i32 0, i32 0
  %5 = getelementptr inbounds nuw %"struct.std::__cxx11::basic_string<char>::_Alloc_hider", ptr %4, i32 0, i32 0
  %6 = load ptr, ptr %5, align 8, !tbaa !820
  ret ptr %6
}

; Function Attrs: mustprogress nounwind uwtable
define linkonce_odr hidden noundef ptr @_ZNK7testing8internal10scoped_ptrINS0_24InternalRunDeathTestFlagEE3getEv(ptr noundef nonnull align 8 dereferenceable(8) %0) #7 comdat align 2 {
  %2 = alloca ptr, align 8
  store ptr %0, ptr %2, align 8, !tbaa !553
  %3 = load ptr, ptr %2, align 8
  %4 = getelementptr inbounds nuw %"class.testing::internal::scoped_ptr.29", ptr %3, i32 0, i32 0
  %5 = load ptr, ptr %4, align 8, !tbaa !556
  ret ptr %5
}

; Function Attrs: mustprogress nounwind uwtable
define linkonce_odr hidden noundef ptr @_ZN7testing8UnitTest4implEv(ptr noundef nonnull align 8 dereferenceable(72) %0) #7 comdat align 2 {
  %2 = alloca ptr, align 8
  store ptr %0, ptr %2, align 8, !tbaa !55
  %3 = load ptr, ptr %2, align 8
  %4 = getelementptr inbounds nuw %"class.testing::UnitTest", ptr %3, i32 0, i32 2
  %5 = load ptr, ptr %4, align 8, !tbaa !57
  ret ptr %5
}

; Function Attrs: mustprogress uwtable
define noundef ptr @_ZN7testing8UnitTest11GetInstanceEv() #6 align 2 personality ptr @__gxx_personality_v0 {
  %1 = alloca ptr, align 8
  %2 = alloca i32, align 4
  %3 = load atomic i8, ptr @_ZGVZN7testing8UnitTest11GetInstanceEvE8instance acquire, align 8
  %4 = icmp eq i8 %3, 0
  br i1 %4, label %5, label %11, !prof !54

5:                                                ; preds = %0
  %6 = call i32 @__cxa_guard_acquire(ptr @_ZGVZN7testing8UnitTest11GetInstanceEvE8instance) #3
  %7 = icmp ne i32 %6, 0
  br i1 %7, label %8, label %11

8:                                                ; preds = %5
  invoke void @_ZN7testing8UnitTestC1Ev(ptr noundef nonnull align 8 dereferenceable(72) @_ZZN7testing8UnitTest11GetInstanceEvE8instance)
          to label %9 unwind label %12

9:                                                ; preds = %8
  %10 = call i32 @__cxa_atexit(ptr @_ZN7testing8UnitTestD1Ev, ptr @_ZZN7testing8UnitTest11GetInstanceEvE8instance, ptr @__dso_handle) #3
  call void @__cxa_guard_release(ptr @_ZGVZN7testing8UnitTest11GetInstanceEvE8instance) #3
  br label %11

11:                                               ; preds = %9, %5, %0
  ret ptr @_ZZN7testing8UnitTest11GetInstanceEvE8instance

12:                                               ; preds = %8
  %13 = landingpad { ptr, i32 }
          cleanup
  %14 = extractvalue { ptr, i32 } %13, 0
  store ptr %14, ptr %1, align 8
  %15 = extractvalue { ptr, i32 } %13, 1
  store i32 %15, ptr %2, align 4
  call void @__cxa_guard_abort(ptr @_ZGVZN7testing8UnitTest11GetInstanceEvE8instance) #3
  br label %16

16:                                               ; preds = %12
  %17 = load ptr, ptr %1, align 8
  %18 = load i32, ptr %2, align 4
  %19 = insertvalue { ptr, i32 } poison, ptr %17, 0
  %20 = insertvalue { ptr, i32 } %19, i32 %18, 1
  resume { ptr, i32 } %20
}

; Function Attrs: inlinehint mustprogress nounwind uwtable
define linkonce_odr hidden void @_ZN7testing8internal5posix5AbortEv() #4 comdat {
  call void @abort() #28
  unreachable
}

; Function Attrs: mustprogress nounwind uwtable
define available_externally noundef ptr @_ZNKSt7__cxx1112basic_stringIcSt11char_traitsIcESaIcEE5c_strEv(ptr noundef nonnull align 8 dereferenceable(32) %0) #7 align 2 {
  %2 = alloca ptr, align 8
  store ptr %0, ptr %2, align 8, !tbaa !21
  %3 = load ptr, ptr %2, align 8
  %4 = call noundef ptr @_ZNKSt7__cxx1112basic_stringIcSt11char_traitsIcESaIcEE7_M_dataEv(ptr noundef nonnull align 8 dereferenceable(32) %3)
  ret ptr %4
}

; Function Attrs: mustprogress nounwind uwtable
define linkonce_odr hidden noundef i32 @_ZNK7testing8internal24InternalRunDeathTestFlag8write_fdEv(ptr noundef nonnull align 8 dereferenceable(44) %0) #7 comdat align 2 {
  %2 = alloca ptr, align 8
  store ptr %0, ptr %2, align 8, !tbaa !555
  %3 = load ptr, ptr %2, align 8
  %4 = getelementptr inbounds nuw %"class.testing::internal::InternalRunDeathTestFlag", ptr %3, i32 0, i32 3
  %5 = load i32, ptr %4, align 8, !tbaa !673
  ret i32 %5
}

; Function Attrs: mustprogress uwtable
define linkonce_odr hidden noundef ptr @_ZNK7testing8internal12UnitTestImpl28internal_run_death_test_flagEv(ptr noundef nonnull align 8 dereferenceable(497) %0) #6 comdat align 2 {
  %2 = alloca ptr, align 8
  store ptr %0, ptr %2, align 8, !tbaa !70
  %3 = load ptr, ptr %2, align 8
  %4 = getelementptr inbounds nuw %"class.testing::internal::UnitTestImpl", ptr %3, i32 0, i32 27
  %5 = call noundef ptr @_ZNK7testing8internal10scoped_ptrINS0_24InternalRunDeathTestFlagEE3getEv(ptr noundef nonnull align 8 dereferenceable(8) %4)
  ret ptr %5
}

; Function Attrs: inlinehint mustprogress uwtable
define linkonce_odr hidden noundef ptr @_ZN7testing8internal15GetUnitTestImplEv() #8 comdat {
  %1 = call noundef ptr @_ZN7testing8UnitTest11GetInstanceEv()
  %2 = call noundef ptr @_ZN7testing8UnitTest4implEv(ptr noundef nonnull align 8 dereferenceable(72) %1)
  ret ptr %2
}

; Function Attrs: mustprogress uwtable
define internal void @_ZN7testing8internalL14DeathTestAbortERKNSt7__cxx1112basic_stringIcSt11char_traitsIcESaIcEEE(ptr noundef nonnull align 8 dereferenceable(32) %0) #6 {
  %2 = alloca ptr, align 8
  %3 = alloca ptr, align 8
  %4 = alloca ptr, align 8
  store ptr %0, ptr %2, align 8, !tbaa !21
  call void @llvm.lifetime.start.p0(i64 8, ptr %3) #3
  %5 = call noundef ptr @_ZN7testing8internal15GetUnitTestImplEv()
  %6 = call noundef ptr @_ZNK7testing8internal12UnitTestImpl28internal_run_death_test_flagEv(ptr noundef nonnull align 8 dereferenceable(497) %5)
  store ptr %6, ptr %3, align 8, !tbaa !555
  %7 = load ptr, ptr %3, align 8, !tbaa !555
  %8 = icmp ne ptr %7, null
  br i1 %8, label %9, label %21

9:                                                ; preds = %1
  call void @llvm.lifetime.start.p0(i64 8, ptr %4) #3
  %10 = load ptr, ptr %3, align 8, !tbaa !555
  %11 = call noundef i32 @_ZNK7testing8internal24InternalRunDeathTestFlag8write_fdEv(ptr noundef nonnull align 8 dereferenceable(44) %10)
  %12 = call noundef ptr @_ZN7testing8internal5posix6FDOpenEiPKc(i32 noundef %11, ptr noundef @.str.279)
  store ptr %12, ptr %4, align 8, !tbaa !25
  %13 = load ptr, ptr %4, align 8, !tbaa !25
  %14 = call i32 @fputc(i32 noundef 73, ptr noundef %13)
  %15 = load ptr, ptr %4, align 8, !tbaa !25
  %16 = load ptr, ptr %2, align 8, !tbaa !21
  %17 = call noundef ptr @_ZNKSt7__cxx1112basic_stringIcSt11char_traitsIcESaIcEE5c_strEv(ptr noundef nonnull align 8 dereferenceable(32) %16) #3
  %18 = call i32 (ptr, ptr, ...) @fprintf(ptr noundef %15, ptr noundef @.str.183, ptr noundef %17) #3
  %19 = load ptr, ptr %4, align 8, !tbaa !25
  %20 = call i32 @fflush(ptr noundef %19)
  call void @_exit(i32 noundef 1) #27
  unreachable

21:                                               ; preds = %1
  %22 = load ptr, ptr @stderr, align 8, !tbaa !25
  %23 = load ptr, ptr %2, align 8, !tbaa !21
  %24 = call noundef ptr @_ZNKSt7__cxx1112basic_stringIcSt11char_traitsIcESaIcEE5c_strEv(ptr noundef nonnull align 8 dereferenceable(32) %23) #3
  %25 = call i32 (ptr, ptr, ...) @fprintf(ptr noundef %22, ptr noundef @.str.183, ptr noundef %24) #3
  %26 = load ptr, ptr @stderr, align 8, !tbaa !25
  %27 = call i32 @fflush(ptr noundef %26)
  call void @_ZN7testing8internal5posix5AbortEv()
  br label %28

28:                                               ; preds = %21
  call void @llvm.lifetime.end.p0(i64 8, ptr %3) #3
  ret void
}