; Function Attrs: mustprogress noreturn uwtable
define internal fastcc void @_ZN7testing8internalL14DeathTestAbortERKNSt7__cxx1112basic_stringIcSt11char_traitsIcESaIcEEE(ptr noundef nonnull readonly align 8 captures(none) dereferenceable(32) %0) unnamed_addr #37 personality ptr @__gxx_personality_v0 {
  %2 = load atomic i8, ptr @_ZGVZN7testing8UnitTest11GetInstanceEvE8instance acquire, align 8
  %3 = icmp eq i8 %2, 0
  br i1 %3, label %4, label %_ZN7testing8internal15GetUnitTestImplEv.exit, !prof !41

4:                                                ; preds = %1
  %5 = tail call i32 @__cxa_guard_acquire(ptr nonnull @_ZGVZN7testing8UnitTest11GetInstanceEvE8instance) #56
  %.not.i.i = icmp eq i32 %5, 0
  br i1 %.not.i.i, label %_ZN7testing8internal15GetUnitTestImplEv.exit, label %6

6:                                                ; preds = %4
  invoke void @_ZN7testing8UnitTestC1Ev(ptr noundef nonnull align 8 dereferenceable(72) @_ZZN7testing8UnitTest11GetInstanceEvE8instance)
          to label %7 unwind label %9

7:                                                ; preds = %6
  %8 = tail call i32 @__cxa_atexit(ptr nonnull @_ZN7testing8UnitTestD1Ev, ptr nonnull @_ZZN7testing8UnitTest11GetInstanceEvE8instance, ptr nonnull @__dso_handle) #56
  tail call void @__cxa_guard_release(ptr nonnull @_ZGVZN7testing8UnitTest11GetInstanceEvE8instance) #56
  br label %_ZN7testing8internal15GetUnitTestImplEv.exit

9:                                                ; preds = %6
  %10 = landingpad { ptr, i32 }
          cleanup
  tail call void @__cxa_guard_abort(ptr nonnull @_ZGVZN7testing8UnitTest11GetInstanceEvE8instance) #56
  resume { ptr, i32 } %10

_ZN7testing8internal15GetUnitTestImplEv.exit:     ; preds = %1, %4, %7
  %11 = load ptr, ptr getelementptr inbounds nuw (i8, ptr @_ZZN7testing8UnitTest11GetInstanceEvE8instance, i64 64), align 8, !tbaa !42
  %12 = getelementptr inbounds nuw i8, ptr %11, i64 464
  %13 = load ptr, ptr %12, align 8, !tbaa !1019
  %.not = icmp eq ptr %13, null
  br i1 %.not, label %21, label %14

14:                                               ; preds = %_ZN7testing8internal15GetUnitTestImplEv.exit
  %15 = getelementptr inbounds nuw i8, ptr %13, i64 40
  %16 = load i32, ptr %15, align 8, !tbaa !1045
  %17 = tail call noundef ptr @_ZN7testing8internal5posix6FDOpenEiPKc(i32 noundef %16, ptr noundef nonnull @.str.279)
  %18 = tail call i32 @fputc(i32 noundef 73, ptr noundef %17)
  %19 = load ptr, ptr %0, align 8, !tbaa !3
  %fputs7 = tail call i32 @fputs(ptr %19, ptr %17)
  %20 = tail call i32 @fflush(ptr noundef %17)
  tail call void @_exit(i32 noundef 1) #58
  unreachable

21:                                               ; preds = %_ZN7testing8internal15GetUnitTestImplEv.exit
  %22 = load ptr, ptr @stderr, align 8, !tbaa !28
  %23 = load ptr, ptr %0, align 8, !tbaa !3
  %fputs = tail call i32 @fputs(ptr %23, ptr %22) #64
  %24 = load ptr, ptr @stderr, align 8, !tbaa !28
  %25 = tail call i32 @fflush(ptr noundef %24)
  tail call void @abort() #61
  unreachable
}